target datalayout = "e-m:e-p270:32:32-p271:32:32-p272:64:64-i64:64-i128:128-f80:128-n8:16:32:64-S128"
target triple = "x86_64-pc-linux-gnu"

%"class.std::__cxx11::basic_string" = type { %"struct.std::__cxx11::basic_string<char>::_Alloc_hider", i64, %union.anon }
%"struct.std::__cxx11::basic_string<char>::_Alloc_hider" = type { ptr }
%union.anon = type { i64, [8 x i8] }
%class.cmListFileBacktrace = type { %class.cmConstStack }
%class.cmConstStack = type { %"class.std::shared_ptr" }
%"class.std::shared_ptr" = type { %"class.std::__shared_ptr" }
%"class.std::__shared_ptr" = type { ptr, %"class.std::__shared_count" }
%"class.std::__shared_count" = type { ptr }
%class.cmInstallFilesGenerator = type <{ %class.cmInstallGenerator, ptr, %"class.std::vector", %"class.std::__cxx11::basic_string", %"class.std::__cxx11::basic_string", i8, i8, [6 x i8] }>
%class.cmInstallGenerator = type { %class.cmScriptGenerator.base, %"class.std::__cxx11::basic_string", %"class.std::__cxx11::basic_string", i32, i8, i8, %class.cmListFileBacktrace }
%class.cmScriptGenerator.base = type <{ ptr, %"class.std::__cxx11::basic_string", %"class.std::vector", %"class.std::__cxx11::basic_string", ptr, i8 }>
%"class.std::vector" = type { %"struct.std::_Vector_base" }
%"struct.std::_Vector_base" = type { %"struct.std::_Vector_base<std::__cxx11::basic_string<char>, std::allocator<std::__cxx11::basic_string<char>>>::_Vector_impl" }
%"struct.std::_Vector_base<std::__cxx11::basic_string<char>, std::allocator<std::__cxx11::basic_string<char>>>::_Vector_impl" = type { %"struct.std::_Vector_base<std::__cxx11::basic_string<char>, std::allocator<std::__cxx11::basic_string<char>>>::_Vector_impl_data" }
%"struct.std::_Vector_base<std::__cxx11::basic_string<char>, std::allocator<std::__cxx11::basic_string<char>>>::_Vector_impl_data" = type { ptr, ptr, ptr }
%class.cmScriptGeneratorIndent = type { i32 }

; Function Attrs: mustprogress uwtable
define dso_local void @_ZN23cmInstallFilesGenerator19AddFilesInstallRuleERSoRKNSt7__cxx1112basic_stringIcSt11char_traitsIcESaIcEEE23cmScriptGeneratorIndentRKSt6vectorIS6_SaIS6_EE(ptr noundef nonnull align 8 dereferenceable(298) %0, ptr noundef nonnull align 8 dereferenceable(8) %1, ptr noundef nonnull align 8 dereferenceable(32) %2, i32 %3, ptr noundef nonnull align 8 dereferenceable(24) %4) #4 align 2 personality ptr @__gxx_personality_v0 {
  %6 = alloca %class.cmScriptGeneratorIndent, align 4
  %7 = alloca ptr, align 8
  %8 = alloca ptr, align 8
  %9 = alloca ptr, align 8
  %10 = alloca ptr, align 8
  %11 = alloca ptr, align 8
  %12 = alloca %"class.std::__cxx11::basic_string", align 8
  %13 = alloca %"class.std::__cxx11::basic_string", align 8
  %14 = alloca ptr, align 8
  %15 = alloca i32, align 4
  %16 = alloca %class.cmScriptGeneratorIndent, align 4
  %17 = getelementptr inbounds %class.cmScriptGeneratorIndent, ptr %6, i32 0, i32 0
  store i32 %3, ptr %17, align 4
  store ptr %0, ptr %7, align 8
  store ptr %1, ptr %8, align 8
  store ptr %2, ptr %9, align 8
  store ptr %4, ptr %10, align 8
  %18 = load ptr, ptr %7, align 8
  store ptr null, ptr %11, align 8
  %19 = load ptr, ptr %8, align 8
  %20 = load ptr, ptr %9, align 8
  call void @_ZNK23cmInstallFilesGenerator14GetDestinationERKNSt7__cxx1112basic_stringIcSt11char_traitsIcESaIcEEE(ptr dead_on_unwind writable sret(%"class.std::__cxx11::basic_string") align 8 %12, ptr noundef nonnull align 8 dereferenceable(298) %18, ptr noundef nonnull align 8 dereferenceable(32) %20)
  %21 = getelementptr inbounds %class.cmInstallFilesGenerator, ptr %18, i32 0, i32 5
  %22 = load i8, ptr %21, align 8
  %23 = trunc i8 %22 to i1
  %24 = select i1 %23, i32 5, i32 4
  %25 = load ptr, ptr %10, align 8
  %26 = getelementptr inbounds %class.cmInstallFilesGenerator, ptr %18, i32 0, i32 6
  %27 = load i8, ptr %26, align 1
  %28 = trunc i8 %27 to i1
  %29 = getelementptr inbounds %class.cmInstallFilesGenerator, ptr %18, i32 0, i32 3
  %30 = call noundef ptr @_ZNKSt7__cxx1112basic_stringIcSt11char_traitsIcESaIcEE5c_strEv(ptr noundef nonnull align 8 dereferenceable(32) %29) #3
  %31 = load ptr, ptr %11, align 8
  %32 = load ptr, ptr %9, align 8
  invoke void @_ZNK23cmInstallFilesGenerator9GetRenameERKNSt7__cxx1112basic_stringIcSt11char_traitsIcESaIcEEE(ptr dead_on_unwind writable sret(%"class.std::__cxx11::basic_string") align 8 %13, ptr noundef nonnull align 8 dereferenceable(298) %18, ptr noundef nonnull align 8 dereferenceable(32) %32)
          to label %33 unwind label %38

33:                                               ; preds = %5
  %34 = call noundef ptr @_ZNKSt7__cxx1112basic_stringIcSt11char_traitsIcESaIcEE5c_strEv(ptr noundef nonnull align 8 dereferenceable(32) %13) #3
  call void @llvm.memcpy.p0.p0.i64(ptr align 4 %16, ptr align 4 %6, i64 4, i1 false)
  %35 = getelementptr inbounds %class.cmScriptGeneratorIndent, ptr %16, i32 0, i32 0
  %36 = load i32, ptr %35, align 4
  invoke void @_ZN18cmInstallGenerator14AddInstallRuleERSoRKNSt7__cxx1112basic_stringIcSt11char_traitsIcESaIcEEE13cmInstallTypeRKSt6vectorIS6_SaIS6_EEbPKcSG_SG_SG_23cmScriptGeneratorIndentSG_(ptr noundef nonnull align 8 dereferenceable(200) %18, ptr noundef nonnull align 8 dereferenceable(8) %19, ptr noundef nonnull align 8 dereferenceable(32) %12, i32 noundef %24, ptr noundef nonnull align 8 dereferenceable(24) %25, i1 noundef zeroext %28, ptr noundef %30, ptr noundef %31, ptr noundef %34, ptr noundef null, i32 %36, ptr noundef null)
          to label %37 unwind label %42

37:                                               ; preds = %33
  call void @_ZNSt7__cxx1112basic_stringIcSt11char_traitsIcESaIcEED1Ev(ptr noundef nonnull align 8 dereferenceable(32) %13) #3
  call void @_ZNSt7__cxx1112basic_stringIcSt11char_traitsIcESaIcEED1Ev(ptr noundef nonnull align 8 dereferenceable(32) %12) #3
  ret void

38:                                               ; preds = %5
  %39 = landingpad { ptr, i32 }
          cleanup
  %40 = extractvalue { ptr, i32 } %39, 0
  store ptr %40, ptr %14, align 8
  %41 = extractvalue { ptr, i32 } %39, 1
  store i32 %41, ptr %15, align 4
  br label %46

42:                                               ; preds = %33
  %43 = landingpad { ptr, i32 }
          cleanup
  %44 = extractvalue { ptr, i32 } %43, 0
  store ptr %44, ptr %14, align 8
  %45 = extractvalue { ptr, i32 } %43, 1
  store i32 %45, ptr %15, align 4
  call void @_ZNSt7__cxx1112basic_stringIcSt11char_traitsIcESaIcEED1Ev(ptr noundef nonnull align 8 dereferenceable(32) %13) #3
  br label %46

46:                                               ; preds = %42, %38
  call void @_ZNSt7__cxx1112basic_stringIcSt11char_traitsIcESaIcEED1Ev(ptr noundef nonnull align 8 dereferenceable(32) %12) #3
  br label %47

47:                                               ; preds = %46
  %48 = load ptr, ptr %14, align 8
  %49 = load i32, ptr %15, align 4
  %50 = insertvalue { ptr, i32 } poison, ptr %48, 0
  %51 = insertvalue { ptr, i32 } %50, i32 %49, 1
  resume { ptr, i32 } %51
}