; Function Attrs: mustprogress uwtable
define dso_local void @_ZN23cmInstallFilesGenerator19AddFilesInstallRuleERSoRKNSt7__cxx1112basic_stringIcSt11char_traitsIcESaIcEEE23cmScriptGeneratorIndentRKSt6vectorIS6_SaIS6_EE(ptr noundef nonnull align 8 dereferenceable(298) %0, ptr noundef nonnull align 8 dereferenceable(8) %1, ptr noundef nonnull align 8 dereferenceable(32) %2, i32 %3, ptr noundef nonnull align 8 dereferenceable(24) %4) local_unnamed_addr #3 align 2 personality ptr @__gxx_personality_v0 {
  %6 = alloca %"class.std::__cxx11::basic_string", align 8
  %7 = alloca %"class.std::__cxx11::basic_string", align 8
  call void @_ZNK23cmInstallFilesGenerator14GetDestinationERKNSt7__cxx1112basic_stringIcSt11char_traitsIcESaIcEEE(ptr dead_on_unwind nonnull writable sret(%"class.std::__cxx11::basic_string") align 8 %6, ptr noundef nonnull align 8 dereferenceable(298) %0, ptr noundef nonnull align 8 dereferenceable(32) %2)
  %8 = getelementptr inbounds i8, ptr %0, i64 296
  %9 = load i8, ptr %8, align 8
  %10 = getelementptr inbounds i8, ptr %0, i64 297
  %11 = load i8, ptr %10, align 1
  %12 = getelementptr inbounds i8, ptr %0, i64 232
  %13 = call noundef ptr @_ZNKSt7__cxx1112basic_stringIcSt11char_traitsIcESaIcEE5c_strEv(ptr noundef nonnull align 8 dereferenceable(32) %12) #13
  invoke void @_ZNK23cmInstallFilesGenerator9GetRenameERKNSt7__cxx1112basic_stringIcSt11char_traitsIcESaIcEEE(ptr dead_on_unwind nonnull writable sret(%"class.std::__cxx11::basic_string") align 8 %7, ptr noundef nonnull align 8 dereferenceable(298) %0, ptr noundef nonnull align 8 dereferenceable(32) %2)
          to label %14 unwind label %21

14:                                               ; preds = %5
  %15 = and i8 %11, 1
  %16 = icmp ne i8 %15, 0
  %17 = and i8 %9, 1
  %.not = icmp eq i8 %17, 0
  %18 = select i1 %.not, i32 4, i32 5
  %19 = call noundef ptr @_ZNKSt7__cxx1112basic_stringIcSt11char_traitsIcESaIcEE5c_strEv(ptr noundef nonnull align 8 dereferenceable(32) %7) #13
  invoke void @_ZN18cmInstallGenerator14AddInstallRuleERSoRKNSt7__cxx1112basic_stringIcSt11char_traitsIcESaIcEEE13cmInstallTypeRKSt6vectorIS6_SaIS6_EEbPKcSG_SG_SG_23cmScriptGeneratorIndentSG_(ptr noundef nonnull align 8 dereferenceable(200) %0, ptr noundef nonnull align 8 dereferenceable(8) %1, ptr noundef nonnull align 8 dereferenceable(32) %6, i32 noundef %18, ptr noundef nonnull align 8 dereferenceable(24) %4, i1 noundef zeroext %16, ptr noundef %13, ptr noundef null, ptr noundef %19, ptr noundef null, i32 %3, ptr noundef null)
          to label %20 unwind label %23

20:                                               ; preds = %14
  call void @_ZNSt7__cxx1112basic_stringIcSt11char_traitsIcESaIcEED1Ev(ptr noundef nonnull align 8 dereferenceable(32) %7) #13
  call void @_ZNSt7__cxx1112basic_stringIcSt11char_traitsIcESaIcEED1Ev(ptr noundef nonnull align 8 dereferenceable(32) %6) #13
  ret void

21:                                               ; preds = %5
  %22 = landingpad { ptr, i32 }
          cleanup
  br label %25

23:                                               ; preds = %14
  %24 = landingpad { ptr, i32 }
          cleanup
  call void @_ZNSt7__cxx1112basic_stringIcSt11char_traitsIcESaIcEED1Ev(ptr noundef nonnull align 8 dereferenceable(32) %7) #13
  br label %25

25:                                               ; preds = %23, %21
  %.pn = phi { ptr, i32 } [ %24, %23 ], [ %22, %21 ]
  call void @_ZNSt7__cxx1112basic_stringIcSt11char_traitsIcESaIcEED1Ev(ptr noundef nonnull align 8 dereferenceable(32) %6) #13
  resume { ptr, i32 } %.pn
}